#include <math.h>
#include <stdio.h>
#include <stdlib.h>
#include <string.h>

main()
{
      int n;
      double a,b,c;
      double x1,x2;
      double Delta;
      scanf("%d\n",&n);
      for(int i=1;i<=n;i++)
      {
      scanf("%lf %lf %lf",&a,&b,&c);
      Delta =(b*b-4*a*c);
      if (Delta>0)
      {x1 = (-b + sqrt(Delta))/(2*a); 
      x2 = (-b - sqrt(Delta))/(2*a); 
      printf("x1=%.5f;x2=%.5f\n",x1,x2);
      } 
      else if (fabs(Delta)<1e-7)
      {x1 = (-b )/(2*a); 
      printf("x1=x2=%.5f\n",x1);
      }
      else 
       {x1 = (-b + sqrt(-Delta))/(2*a); 
       x2 = (-b - sqrt(-Delta))/(2*a) ;
       
      if(fabs(b)<1e-7)
      printf("x1=%.5f+%.5fi;x2=%.5f-%.5fi\n",(b/(2*a)),(sqrt(4*a*c-b*b)/(2*a)),(b/(2*a)),(sqrt(4*a*c-b*b)/(2*a)));
      else 
      printf("x1=%.5f+%.5fi;x2=%.5f-%.5fi\n",(-b/(2*a)),(sqrt(4*a*c-b*b)/(2*a)),(-b/(2*a)),(sqrt(4*a*c-b*b)/(2*a)));
      }
                         
      }
       
}
            
            
