; ModuleID = 'source-C-CXX/26/1466.c'
source_filename = "source-C-CXX/26/1466.c"
target datalayout = "e-m:e-p270:32:32-p271:32:32-p272:64:64-i64:64-f80:128-n8:16:32:64-S128"
target triple = "x86_64-pc-linux-gnu"

@.str = private unnamed_addr constant [4 x i8] c"%d\0A\00", align 1
@.str.1 = private unnamed_addr constant [12 x i8] c"%lf %lf %lf\00", align 1
@.str.2 = private unnamed_addr constant [17 x i8] c"x1=%.5f;x2=%.5f\0A\00", align 1
@.str.3 = private unnamed_addr constant [12 x i8] c"x1=x2=%.5f\0A\00", align 1
@.str.4 = private unnamed_addr constant [29 x i8] c"x1=%.5f+%.5fi;x2=%.5f-%.5fi\0A\00", align 1

; Function Attrs: nofree nounwind sspstrong uwtable
define dso_local i32 @main() local_unnamed_addr #0 {
  %1 = alloca i32, align 4
  %2 = alloca double, align 8
  %3 = alloca double, align 8
  %4 = alloca double, align 8
  %5 = bitcast i32* %1 to i8*
  call void @llvm.lifetime.start.p0i8(i64 4, i8* nonnull %5) #5
  %6 = bitcast double* %2 to i8*
  call void @llvm.lifetime.start.p0i8(i64 8, i8* nonnull %6) #5
  %7 = bitcast double* %3 to i8*
  call void @llvm.lifetime.start.p0i8(i64 8, i8* nonnull %7) #5
  %8 = bitcast double* %4 to i8*
  call void @llvm.lifetime.start.p0i8(i64 8, i8* nonnull %8) #5
  %9 = call i32 (i8*, ...) @__isoc99_scanf(i8* getelementptr inbounds ([4 x i8], [4 x i8]* @.str, i64 0, i64 0), i32* nonnull %1)
  %10 = load i32, i32* %1, align 4, !tbaa !5
  %11 = icmp slt i32 %10, 1
  br i1 %11, label %12, label %13

12:                                               ; preds = %90, %0
  call void @llvm.lifetime.end.p0i8(i64 8, i8* nonnull %8) #5
  call void @llvm.lifetime.end.p0i8(i64 8, i8* nonnull %7) #5
  call void @llvm.lifetime.end.p0i8(i64 8, i8* nonnull %6) #5
  call void @llvm.lifetime.end.p0i8(i64 4, i8* nonnull %5) #5
  ret i32 0

13:                                               ; preds = %0, %90
  %14 = phi i32 [ %91, %90 ], [ 1, %0 ]
  %15 = call i32 (i8*, ...) @__isoc99_scanf(i8* getelementptr inbounds ([12 x i8], [12 x i8]* @.str.1, i64 0, i64 0), double* nonnull %2, double* nonnull %3, double* nonnull %4)
  %16 = load double, double* %3, align 8, !tbaa !9
  %17 = fmul double %16, %16
  %18 = load double, double* %2, align 8, !tbaa !9
  %19 = fmul double %18, 4.000000e+00
  %20 = load double, double* %4, align 8, !tbaa !9
  %21 = fmul double %19, %20
  %22 = fsub double %17, %21
  %23 = fcmp ogt double %22, 0.000000e+00
  br i1 %23, label %24, label %38

24:                                               ; preds = %13
  %25 = call double @sqrt(double %22) #5
  %26 = fsub double %25, %16
  %27 = load double, double* %2, align 8, !tbaa !9
  %28 = fmul double %27, 2.000000e+00
  %29 = fdiv double %26, %28
  %30 = load double, double* %3, align 8, !tbaa !9
  %31 = fneg double %30
  %32 = call double @sqrt(double %22) #5
  %33 = fsub double %31, %32
  %34 = load double, double* %2, align 8, !tbaa !9
  %35 = fmul double %34, 2.000000e+00
  %36 = fdiv double %33, %35
  %37 = call i32 (i8*, ...) @printf(i8* nonnull dereferenceable(1) getelementptr inbounds ([17 x i8], [17 x i8]* @.str.2, i64 0, i64 0), double %29, double %36)
  br label %90

38:                                               ; preds = %13
  %39 = call double @llvm.fabs.f64(double %22)
  %40 = fcmp olt double %39, 0x3E7AD7F29ABCAF48
  br i1 %40, label %41, label %46

41:                                               ; preds = %38
  %42 = fneg double %16
  %43 = fmul double %18, 2.000000e+00
  %44 = fdiv double %42, %43
  %45 = call i32 (i8*, ...) @printf(i8* nonnull dereferenceable(1) getelementptr inbounds ([12 x i8], [12 x i8]* @.str.3, i64 0, i64 0), double %44)
  br label %90

46:                                               ; preds = %38
  %47 = fmul double %18, 2.000000e+00
  %48 = call double @llvm.fabs.f64(double %16)
  %49 = fcmp olt double %48, 0x3E7AD7F29ABCAF48
  br i1 %49, label %50, label %69

50:                                               ; preds = %46
  %51 = fdiv double %16, %47
  %52 = fsub double %21, %17
  %53 = call double @sqrt(double %52) #5
  %54 = load double, double* %2, align 8, !tbaa !9
  %55 = fmul double %54, 2.000000e+00
  %56 = fdiv double %53, %55
  %57 = load double, double* %3, align 8, !tbaa !9
  %58 = fdiv double %57, %55
  %59 = fmul double %54, 4.000000e+00
  %60 = load double, double* %4, align 8, !tbaa !9
  %61 = fmul double %59, %60
  %62 = fmul double %57, %57
  %63 = fsub double %61, %62
  %64 = call double @sqrt(double %63) #5
  %65 = load double, double* %2, align 8, !tbaa !9
  %66 = fmul double %65, 2.000000e+00
  %67 = fdiv double %64, %66
  %68 = call i32 (i8*, ...) @printf(i8* nonnull dereferenceable(1) getelementptr inbounds ([29 x i8], [29 x i8]* @.str.4, i64 0, i64 0), double %51, double %56, double %58, double %67)
  br label %90

69:                                               ; preds = %46
  %70 = fneg double %16
  %71 = fdiv double %70, %47
  %72 = fsub double %21, %17
  %73 = call double @sqrt(double %72) #5
  %74 = load double, double* %2, align 8, !tbaa !9
  %75 = fmul double %74, 2.000000e+00
  %76 = fdiv double %73, %75
  %77 = load double, double* %3, align 8, !tbaa !9
  %78 = fneg double %77
  %79 = fdiv double %78, %75
  %80 = fmul double %74, 4.000000e+00
  %81 = load double, double* %4, align 8, !tbaa !9
  %82 = fmul double %80, %81
  %83 = fmul double %77, %77
  %84 = fsub double %82, %83
  %85 = call double @sqrt(double %84) #5
  %86 = load double, double* %2, align 8, !tbaa !9
  %87 = fmul double %86, 2.000000e+00
  %88 = fdiv double %85, %87
  %89 = call i32 (i8*, ...) @printf(i8* nonnull dereferenceable(1) getelementptr inbounds ([29 x i8], [29 x i8]* @.str.4, i64 0, i64 0), double %71, double %76, double %79, double %88)
  br label %90

90:                                               ; preds = %24, %50, %69, %41
  %91 = add nuw nsw i32 %14, 1
  %92 = load i32, i32* %1, align 4, !tbaa !5
  %93 = icmp slt i32 %14, %92
  br i1 %93, label %13, label %12, !llvm.loop !11
}

; Function Attrs: argmemonly mustprogress nofree nosync nounwind willreturn
declare void @llvm.lifetime.start.p0i8(i64 immarg, i8* nocapture) #1

; Function Attrs: nofree nounwind
declare noundef i32 @__isoc99_scanf(i8* nocapture noundef readonly, ...) local_unnamed_addr #2

; Function Attrs: mustprogress nofree nounwind willreturn
declare double @sqrt(double) local_unnamed_addr #3

; Function Attrs: nofree nounwind
declare noundef i32 @printf(i8* nocapture noundef readonly, ...) local_unnamed_addr #2

; Function Attrs: mustprogress nofree nosync nounwind readnone speculatable willreturn
declare double @llvm.fabs.f64(double) #4

; Function Attrs: argmemonly mustprogress nofree nosync nounwind willreturn
declare void @llvm.lifetime.end.p0i8(i64 immarg, i8* nocapture) #1


!llvm.module.flags = !{!0, !1, !2, !3}
!llvm.ident = !{!4}

!0 = !{i32 1, !"wchar_size", i32 4}
!1 = !{i32 7, !"PIC Level", i32 2}
!2 = !{i32 7, !"PIE Level", i32 2}
!3 = !{i32 7, !"uwtable", i32 1}
!4 = !{!"clang version 13.0.0"}
!5 = !{!6, !6, i64 0}
!6 = !{!"int", !7, i64 0}
!7 = !{!"omnipotent char", !8, i64 0}
!8 = !{!"Simple C/C++ TBAA"}
!9 = !{!10, !10, i64 0}
!10 = !{!"double", !7, i64 0}
!11 = distinct !{!11, !12}
!12 = !{!"llvm.loop.mustprogress"}
